target datalayout = "e-m:e-p270:32:32-p271:32:32-p272:64:64-i64:64-i128:128-f80:128-n8:16:32:64-S128"
target triple = "x86_64-pc-linux-gnu"

%struct.anon.40 = type { i8 }
%"struct.hb::shared_ptr" = type { ptr }
%struct.hb_subset_input_t = type { %struct.hb_object_header_t, %union.anon, i32, i8, i8, %struct.hb_hashmap_t, %struct.hb_map_t }
%struct.hb_object_header_t = type { %struct.hb_reference_count_t, %struct.hb_atomic_int_t, %struct.hb_atomic_ptr_t }
%struct.hb_reference_count_t = type { %struct.hb_atomic_int_t }
%struct.hb_atomic_int_t = type { i32 }
%struct.hb_atomic_ptr_t = type { ptr }
%union.anon = type { %"struct.hb_subset_input_t::sets_t" }
%"struct.hb_subset_input_t::sets_t" = type { %"struct.hb::shared_ptr", %"struct.hb::shared_ptr", %"struct.hb::shared_ptr", %"struct.hb::shared_ptr", %"struct.hb::shared_ptr", %"struct.hb::shared_ptr", %"struct.hb::shared_ptr", %"struct.hb::shared_ptr" }
%struct.hb_hashmap_t = type { %struct.hb_object_header_t, i8, i16, i32, i32, i32, i32, ptr }
%struct.hb_map_t = type { %struct.hb_hashmap_t.0 }
%struct.hb_hashmap_t.0 = type { %struct.hb_object_header_t, i8, i16, i32, i32, i32, i32, ptr }
%struct.Triple = type { double, double, double }
%struct.hb_ot_var_axis_info_t = type { i32, i32, i32, i32, float, float, float, i32 }

@_ZL7hb_hash = internal constant %struct.anon.40 zeroinitializer, align 1

; Function Attrs: mustprogress nounwind uwtable
define internal noundef i32 @"_ZNK3$_34implIjTnPN12hb_enable_ifIXaasr3std11is_integralIT_EE5valuelestS2_Lm4EEvE4typeELPv0EEEN10_hb_head_tIjJDTmlcvjfp_Lj2654435761EEEE4typeERKS2_11hb_priorityILj1EE"(ptr noundef nonnull align 1 dereferenceable(1) %0, ptr noundef nonnull align 4 dereferenceable(4) %1) #0 align 2 {
  %3 = alloca ptr, align 8
  %4 = alloca ptr, align 8
  store ptr %0, ptr %3, align 8, !tbaa !56
  store ptr %1, ptr %4, align 8, !tbaa !48
  %5 = load ptr, ptr %4, align 8, !tbaa !48
  %6 = load i32, ptr %5, align 4, !tbaa !43
  %7 = mul i32 %6, -1640531535
  ret i32 %7
}

; Function Attrs: mustprogress nounwind uwtable
define internal noundef i32 @"_ZNK3$_3clIjEEN10_hb_head_tIjJDTcl4implfp_cv11hb_priorityILj16EE_EEEEE4typeERKT_"(ptr noundef nonnull align 1 dereferenceable(1) %0, ptr noundef nonnull align 4 dereferenceable(4) %1) #0 align 2 {
  %3 = alloca ptr, align 8
  %4 = alloca ptr, align 8
  store ptr %0, ptr %3, align 8, !tbaa !56
  store ptr %1, ptr %4, align 8, !tbaa !48
  %5 = load ptr, ptr %3, align 8
  %6 = load ptr, ptr %4, align 8, !tbaa !48
  %7 = call noundef i32 @"_ZNK3$_34implIjTnPN12hb_enable_ifIXaasr3std11is_integralIT_EE5valuelestS2_Lm4EEvE4typeELPv0EEEN10_hb_head_tIjJDTmlcvjfp_Lj2654435761EEEE4typeERKS2_11hb_priorityILj1EE"(ptr noundef nonnull align 1 dereferenceable(1) %5, ptr noundef nonnull align 4 dereferenceable(4) %6)
  ret i32 %7
}

; Function Attrs: mustprogress nounwind uwtable
define linkonce_odr dso_local noundef zeroext i1 @_ZN12hb_hashmap_tIj6TripleLb0EE3setIS0_EEbRKjOT_b(ptr noundef nonnull align 8 dereferenceable(48) %0, ptr noundef nonnull align 4 dereferenceable(4) %1, ptr noundef nonnull align 8 dereferenceable(24) %2, i1 noundef zeroext %3) #0 comdat align 2 {
  %5 = alloca ptr, align 8
  %6 = alloca ptr, align 8
  %7 = alloca ptr, align 8
  %8 = alloca i8, align 1
  store ptr %0, ptr %5, align 8, !tbaa !32
  store ptr %1, ptr %6, align 8, !tbaa !48
  store ptr %2, ptr %7, align 8, !tbaa !77
  %9 = zext i1 %3 to i8
  store i8 %9, ptr %8, align 1, !tbaa !79
  %10 = load ptr, ptr %5, align 8
  %11 = load ptr, ptr %6, align 8, !tbaa !48
  %12 = load ptr, ptr %6, align 8, !tbaa !48
  %13 = call noundef i32 @"_ZNK3$_3clIjEEN10_hb_head_tIjJDTcl4implfp_cv11hb_priorityILj16EE_EEEEE4typeERKT_"(ptr noundef nonnull align 1 dereferenceable(1) @_ZL7hb_hash, ptr noundef nonnull align 4 dereferenceable(4) %12)
  %14 = load ptr, ptr %7, align 8, !tbaa !77
  %15 = load i8, ptr %8, align 1, !tbaa !79, !range !80, !noundef !81
  %16 = trunc i8 %15 to i1
  %17 = call noundef zeroext i1 @_ZN12hb_hashmap_tIj6TripleLb0EE13set_with_hashIRKjS0_EEbOT_jOT0_b(ptr noundef nonnull align 8 dereferenceable(48) %10, ptr noundef nonnull align 4 dereferenceable(4) %11, i32 noundef %13, ptr noundef nonnull align 8 dereferenceable(24) %14, i1 noundef zeroext %16)
  ret i1 %17
}

; Function Attrs: mustprogress nounwind uwtable
define linkonce_odr dso_local void @_ZN6TripleC2Eddd(ptr noundef nonnull align 8 dereferenceable(24) %0, double noundef %1, double noundef %2, double noundef %3) unnamed_addr #0 comdat align 2 {
  %5 = alloca ptr, align 8
  %6 = alloca double, align 8
  %7 = alloca double, align 8
  %8 = alloca double, align 8
  store ptr %0, ptr %5, align 8, !tbaa !77
  store double %1, ptr %6, align 8, !tbaa !74
  store double %2, ptr %7, align 8, !tbaa !74
  store double %3, ptr %8, align 8, !tbaa !74
  %9 = load ptr, ptr %5, align 8
  %10 = getelementptr inbounds nuw %struct.Triple, ptr %9, i32 0, i32 0
  %11 = load double, ptr %6, align 8, !tbaa !74
  store double %11, ptr %10, align 8, !tbaa !82
  %12 = getelementptr inbounds nuw %struct.Triple, ptr %9, i32 0, i32 1
  %13 = load double, ptr %7, align 8, !tbaa !74
  store double %13, ptr %12, align 8, !tbaa !84
  %14 = getelementptr inbounds nuw %struct.Triple, ptr %9, i32 0, i32 2
  %15 = load double, ptr %8, align 8, !tbaa !74
  store double %15, ptr %14, align 8, !tbaa !85
  ret void
}

; Function Attrs: mustprogress nounwind uwtable
define dso_local i32 @hb_subset_input_pin_all_axes_to_default(ptr noundef %0, ptr noundef %1) #0 {
  %3 = alloca i32, align 4
  %4 = alloca ptr, align 8
  %5 = alloca ptr, align 8
  %6 = alloca i32, align 4
  %7 = alloca i32, align 4
  %8 = alloca ptr, align 8
  %9 = alloca i32, align 4
  %10 = alloca i32, align 4
  %11 = alloca double, align 8
  %12 = alloca %struct.Triple, align 8
  store ptr %0, ptr %4, align 8, !tbaa !4
  store ptr %1, ptr %5, align 8, !tbaa !65
  call void @llvm.lifetime.start.p0(i64 4, ptr %6) #13
  %13 = load ptr, ptr %5, align 8, !tbaa !65
  %14 = call i32 @hb_ot_var_get_axis_count(ptr noundef %13)
  store i32 %14, ptr %6, align 4, !tbaa !43
  %15 = load i32, ptr %6, align 4, !tbaa !43
  %16 = icmp ne i32 %15, 0
  br i1 %16, label %18, label %17

17:                                               ; preds = %2
  store i32 0, ptr %3, align 4
  store i32 1, ptr %7, align 4
  br label %73

18:                                               ; preds = %2
  call void @llvm.lifetime.start.p0(i64 8, ptr %8) #13
  %19 = load i32, ptr %6, align 4, !tbaa !43
  %20 = zext i32 %19 to i64
  %21 = call noalias ptr @calloc(i64 noundef %20, i64 noundef 32) #14
  store ptr %21, ptr %8, align 8, !tbaa !67
  %22 = load ptr, ptr %8, align 8, !tbaa !67
  %23 = icmp ne ptr %22, null
  %24 = xor i1 %23, true
  %25 = zext i1 %24 to i64
  %26 = call i64 @llvm.expect.i64(i64 %25, i64 0)
  %27 = icmp ne i64 %26, 0
  br i1 %27, label %28, label %29

28:                                               ; preds = %18
  store i32 0, ptr %3, align 4
  store i32 1, ptr %7, align 4
  br label %72

29:                                               ; preds = %18
  %30 = load ptr, ptr %5, align 8, !tbaa !65
  %31 = load ptr, ptr %8, align 8, !tbaa !67
  %32 = call i32 @hb_ot_var_get_axis_infos(ptr noundef %30, i32 noundef 0, ptr noundef %6, ptr noundef %31)
  call void @llvm.lifetime.start.p0(i64 4, ptr %9) #13
  store i32 0, ptr %9, align 4, !tbaa !43
  br label %33

33:                                               ; preds = %65, %29
  %34 = load i32, ptr %9, align 4, !tbaa !43
  %35 = load i32, ptr %6, align 4, !tbaa !43
  %36 = icmp ult i32 %34, %35
  br i1 %36, label %38, label %37

37:                                               ; preds = %33
  store i32 2, ptr %7, align 4
  br label %68

38:                                               ; preds = %33
  call void @llvm.lifetime.start.p0(i64 4, ptr %10) #13
  %39 = load ptr, ptr %8, align 8, !tbaa !67
  %40 = load i32, ptr %9, align 4, !tbaa !43
  %41 = zext i32 %40 to i64
  %42 = getelementptr inbounds nuw %struct.hb_ot_var_axis_info_t, ptr %39, i64 %41
  %43 = getelementptr inbounds nuw %struct.hb_ot_var_axis_info_t, ptr %42, i32 0, i32 1
  %44 = load i32, ptr %43, align 4, !tbaa !69
  store i32 %44, ptr %10, align 4, !tbaa !43
  call void @llvm.lifetime.start.p0(i64 8, ptr %11) #13
  %45 = load ptr, ptr %8, align 8, !tbaa !67
  %46 = load i32, ptr %9, align 4, !tbaa !43
  %47 = zext i32 %46 to i64
  %48 = getelementptr inbounds nuw %struct.hb_ot_var_axis_info_t, ptr %45, i64 %47
  %49 = getelementptr inbounds nuw %struct.hb_ot_var_axis_info_t, ptr %48, i32 0, i32 5
  %50 = load float, ptr %49, align 4, !tbaa !73
  %51 = fpext float %50 to double
  store double %51, ptr %11, align 8, !tbaa !74
  %52 = load ptr, ptr %4, align 8, !tbaa !4
  %53 = getelementptr inbounds nuw %struct.hb_subset_input_t, ptr %52, i32 0, i32 5
  call void @llvm.lifetime.start.p0(i64 24, ptr %12) #13
  %54 = load double, ptr %11, align 8, !tbaa !74
  %55 = load double, ptr %11, align 8, !tbaa !74
  %56 = load double, ptr %11, align 8, !tbaa !74
  call void @_ZN6TripleC2Eddd(ptr noundef nonnull align 8 dereferenceable(24) %12, double noundef %54, double noundef %55, double noundef %56)
  %57 = call noundef zeroext i1 @_ZN12hb_hashmap_tIj6TripleLb0EE3setIS0_EEbRKjOT_b(ptr noundef nonnull align 8 dereferenceable(48) %53, ptr noundef nonnull align 4 dereferenceable(4) %10, ptr noundef nonnull align 8 dereferenceable(24) %12, i1 noundef zeroext true)
  %58 = xor i1 %57, true
  call void @llvm.lifetime.end.p0(i64 24, ptr %12) #13
  br i1 %58, label %59, label %61

59:                                               ; preds = %38
  %60 = load ptr, ptr %8, align 8, !tbaa !67
  call void @free(ptr noundef %60) #13
  store i32 0, ptr %3, align 4
  store i32 1, ptr %7, align 4
  br label %62

61:                                               ; preds = %38
  store i32 0, ptr %7, align 4
  br label %62

62:                                               ; preds = %61, %59
  call void @llvm.lifetime.end.p0(i64 8, ptr %11) #13
  call void @llvm.lifetime.end.p0(i64 4, ptr %10) #13
  %63 = load i32, ptr %7, align 4
  switch i32 %63, label %68 [
    i32 0, label %64
  ]

64:                                               ; preds = %62
  br label %65

65:                                               ; preds = %64
  %66 = load i32, ptr %9, align 4, !tbaa !43
  %67 = add i32 %66, 1
  store i32 %67, ptr %9, align 4, !tbaa !43
  br label %33, !llvm.loop !76

68:                                               ; preds = %62, %37
  call void @llvm.lifetime.end.p0(i64 4, ptr %9) #13
  %69 = load i32, ptr %7, align 4
  switch i32 %69, label %72 [
    i32 2, label %70
  ]

70:                                               ; preds = %68
  %71 = load ptr, ptr %8, align 8, !tbaa !67
  call void @free(ptr noundef %71) #13
  store i32 1, ptr %3, align 4
  store i32 1, ptr %7, align 4
  br label %72

72:                                               ; preds = %70, %68, %28
  call void @llvm.lifetime.end.p0(i64 8, ptr %8) #13
  br label %73

73:                                               ; preds = %72, %17
  call void @llvm.lifetime.end.p0(i64 4, ptr %6) #13
  %74 = load i32, ptr %3, align 4
  ret i32 %74
}