; Function Attrs: mustprogress nounwind uwtable
define dso_local range(i32 0, 2) i32 @hb_subset_input_pin_all_axes_to_default(ptr noundef %0, ptr noundef %1) local_unnamed_addr #0 {
  %3 = alloca i32, align 4
  %4 = alloca i32, align 4
  %5 = alloca %struct.Triple, align 8
  call void @llvm.lifetime.start.p0(i64 4, ptr nonnull %3) #21
  %6 = tail call i32 @hb_ot_var_get_axis_count(ptr noundef %1) #21
  store i32 %6, ptr %3, align 4, !tbaa !52
  %.not = icmp eq i32 %6, 0
  br i1 %.not, label %28, label %7

7:                                                ; preds = %2
  %8 = zext i32 %6 to i64
  %9 = tail call noalias ptr @calloc(i64 noundef %8, i64 noundef 32) #22
  %.not23 = icmp eq ptr %9, null
  br i1 %.not23, label %28, label %10, !prof !57

10:                                               ; preds = %7
  %11 = call i32 @hb_ot_var_get_axis_infos(ptr noundef %1, i32 noundef 0, ptr noundef nonnull %3, ptr noundef nonnull %9) #21
  %12 = load i32, ptr %3, align 4, !tbaa !52
  %.not2427.not = icmp eq i32 %12, 0
  br i1 %.not2427.not, label %.critedge26, label %.lr.ph

.lr.ph:                                           ; preds = %10
  %13 = getelementptr inbounds nuw i8, ptr %0, i64 88
  %14 = getelementptr inbounds nuw i8, ptr %5, i64 8
  %15 = getelementptr inbounds nuw i8, ptr %5, i64 16
  br label %16

16:                                               ; preds = %.lr.ph, %.critedge
  %indvars.iv = phi i64 [ 0, %.lr.ph ], [ %indvars.iv.next, %.critedge ]
  call void @llvm.lifetime.start.p0(i64 4, ptr nonnull %4) #21
  %17 = getelementptr inbounds nuw %struct.hb_ot_var_axis_info_t, ptr %9, i64 %indvars.iv
  %18 = getelementptr inbounds nuw i8, ptr %17, i64 4
  %19 = load i32, ptr %18, align 4, !tbaa !71
  store i32 %19, ptr %4, align 4, !tbaa !52
  %20 = getelementptr inbounds nuw i8, ptr %17, i64 20
  %21 = load float, ptr %20, align 4, !tbaa !75
  %22 = fpext float %21 to double
  call void @llvm.lifetime.start.p0(i64 24, ptr nonnull %5) #21
  store double %22, ptr %5, align 8, !tbaa !76
  store double %22, ptr %14, align 8, !tbaa !79
  store double %22, ptr %15, align 8, !tbaa !80
  %23 = mul i32 %19, -1640531535
  %24 = call noundef zeroext i1 @_ZN12hb_hashmap_tIj6TripleLb0EE13set_with_hashIRKjS0_EEbOT_jOT0_b(ptr noundef nonnull align 8 dereferenceable(48) %13, ptr noundef nonnull align 4 dereferenceable(4) %4, i32 noundef %23, ptr noundef nonnull align 8 dereferenceable(24) %5, i1 noundef zeroext true)
  call void @llvm.lifetime.end.p0(i64 24, ptr nonnull %5) #21
  br i1 %24, label %.critedge, label %25

25:                                               ; preds = %16
  call void @free(ptr noundef nonnull %9) #21
  call void @llvm.lifetime.end.p0(i64 4, ptr nonnull %4) #21
  br label %28

.critedge:                                        ; preds = %16
  call void @llvm.lifetime.end.p0(i64 4, ptr nonnull %4) #21
  %indvars.iv.next = add nuw nsw i64 %indvars.iv, 1
  %26 = load i32, ptr %3, align 4, !tbaa !52
  %27 = zext i32 %26 to i64
  %.not24 = icmp samesign ult i64 %indvars.iv.next, %27
  br i1 %.not24, label %16, label %.critedge26, !llvm.loop !81

.critedge26:                                      ; preds = %.critedge, %10
  call void @free(ptr noundef nonnull %9) #21
  br label %28

28:                                               ; preds = %25, %.critedge26, %7, %2
  %.0 = phi i32 [ 0, %2 ], [ 1, %.critedge26 ], [ 0, %25 ], [ 0, %7 ]
  call void @llvm.lifetime.end.p0(i64 4, ptr nonnull %3) #21
  ret i32 %.0
}